target datalayout = "e-m:e-p270:32:32-p271:32:32-p272:64:64-i64:64-i128:128-f80:128-n8:16:32:64-S128"
target triple = "x86_64-pc-linux-gnu"

%"class.cv::ParallelLoopBody" = type { ptr }
%"class.cv::Range" = type { i32, i32 }
%"class.cv::ximgproc::GuidedFilterImpl" = type <{ %"class.cv::ximgproc::GuidedFilter", i32, [4 x i8], double, double, i32, i32, i32, i32, %"class.std::vector", %"class.std::vector", %"class.std::vector", %"struct.cv::ximgproc::SymArray2D", i32, [4 x i8] }>
%"class.cv::ximgproc::GuidedFilter" = type { %"class.cv::Algorithm" }
%"class.cv::Algorithm" = type { ptr }
%"class.std::vector" = type { %"struct.std::_Vector_base" }
%"struct.std::_Vector_base" = type { %"struct.std::_Vector_base<cv::Mat, std::allocator<cv::Mat>>::_Vector_impl" }
%"struct.std::_Vector_base<cv::Mat, std::allocator<cv::Mat>>::_Vector_impl" = type { %"struct.std::_Vector_base<cv::Mat, std::allocator<cv::Mat>>::_Vector_impl_data" }
%"struct.std::_Vector_base<cv::Mat, std::allocator<cv::Mat>>::_Vector_impl_data" = type { ptr, ptr, ptr }
%"struct.cv::ximgproc::SymArray2D" = type <{ %"class.std::vector", i32, [4 x i8] }>
%"class.cv::Mat" = type { i32, i32, i32, i32, ptr, ptr, ptr, ptr, ptr, ptr, %"struct.cv::MatSize", %"struct.cv::MatStep" }
%"struct.cv::MatSize" = type { ptr }
%"struct.cv::MatStep" = type { ptr, [2 x i64] }
%"struct.std::_Vector_base.6" = type { %"struct.std::_Vector_base<std::vector<cv::Mat>, std::allocator<std::vector<cv::Mat>>>::_Vector_impl" }
%"struct.std::_Vector_base<std::vector<cv::Mat>, std::allocator<std::vector<cv::Mat>>>::_Vector_impl" = type { %"struct.std::_Vector_base<std::vector<cv::Mat>, std::allocator<std::vector<cv::Mat>>>::_Vector_impl_data" }
%"struct.std::_Vector_base<std::vector<cv::Mat>, std::allocator<std::vector<cv::Mat>>>::_Vector_impl_data" = type { ptr, ptr, ptr }
%"struct.cv::ximgproc::GuidedFilterImpl::ApplyTransform_ParBody" = type { %"class.cv::ParallelLoopBody", ptr, ptr, ptr }

; Function Attrs: mustprogress nounwind uwtable
define linkonce_odr hidden noundef nonnull align 8 dereferenceable(24) ptr @_ZNSt6vectorIS_IN2cv3MatESaIS1_EESaIS3_EEixEm(ptr noundef nonnull align 8 dereferenceable(24) %0, i64 noundef %1) #6 comdat align 2 {
  %3 = alloca ptr, align 8
  %4 = alloca i64, align 8
  store ptr %0, ptr %3, align 8, !tbaa !106
  store i64 %1, ptr %4, align 8, !tbaa !45
  %5 = load ptr, ptr %3, align 8
  %6 = getelementptr inbounds nuw %"struct.std::_Vector_base.6", ptr %5, i32 0, i32 0
  %7 = getelementptr inbounds nuw %"struct.std::_Vector_base<std::vector<cv::Mat>, std::allocator<std::vector<cv::Mat>>>::_Vector_impl_data", ptr %6, i32 0, i32 0
  %8 = load ptr, ptr %7, align 8, !tbaa !107
  %9 = load i64, ptr %4, align 8, !tbaa !45
  %10 = getelementptr inbounds nuw %"class.std::vector", ptr %8, i64 %9
  ret ptr %10
}

; Function Attrs: inlinehint mustprogress nounwind uwtable
define linkonce_odr hidden noundef ptr @_ZN2cv3Mat3ptrIfEEPT_i(ptr noundef nonnull align 8 dereferenceable(96) %0, i32 noundef %1) #7 comdat align 2 {
  %3 = alloca ptr, align 8
  %4 = alloca i32, align 4
  store ptr %0, ptr %3, align 8, !tbaa !48
  store i32 %1, ptr %4, align 4, !tbaa !15
  %5 = load ptr, ptr %3, align 8
  %6 = getelementptr inbounds nuw %"class.cv::Mat", ptr %5, i32 0, i32 4
  %7 = load ptr, ptr %6, align 8, !tbaa !49
  %8 = getelementptr inbounds nuw %"class.cv::Mat", ptr %5, i32 0, i32 11
  %9 = getelementptr inbounds nuw %"struct.cv::MatStep", ptr %8, i32 0, i32 0
  %10 = load ptr, ptr %9, align 8, !tbaa !57
  %11 = getelementptr inbounds i64, ptr %10, i64 0
  %12 = load i64, ptr %11, align 8, !tbaa !45
  %13 = load i32, ptr %4, align 4, !tbaa !15
  %14 = sext i32 %13 to i64
  %15 = mul i64 %12, %14
  %16 = getelementptr inbounds nuw i8, ptr %7, i64 %15
  ret ptr %16
}

; Function Attrs: mustprogress nounwind uwtable
define linkonce_odr hidden noundef nonnull align 8 dereferenceable(96) ptr @_ZNSt6vectorIN2cv3MatESaIS1_EEixEm(ptr noundef nonnull align 8 dereferenceable(24) %0, i64 noundef %1) #6 comdat align 2 {
  %3 = alloca ptr, align 8
  %4 = alloca i64, align 8
  store ptr %0, ptr %3, align 8, !tbaa !43
  store i64 %1, ptr %4, align 8, !tbaa !45
  %5 = load ptr, ptr %3, align 8
  %6 = getelementptr inbounds nuw %"struct.std::_Vector_base", ptr %5, i32 0, i32 0
  %7 = getelementptr inbounds nuw %"struct.std::_Vector_base<cv::Mat, std::allocator<cv::Mat>>::_Vector_impl_data", ptr %6, i32 0, i32 0
  %8 = load ptr, ptr %7, align 8, !tbaa !47
  %9 = load i64, ptr %4, align 8, !tbaa !45
  %10 = getelementptr inbounds nuw %"class.cv::Mat", ptr %8, i64 %9
  ret ptr %10
}

; Function Attrs: mustprogress nounwind uwtable
define linkonce_odr hidden noundef i64 @_ZNKSt6vectorIS_IN2cv3MatESaIS1_EESaIS3_EE4sizeEv(ptr noundef nonnull align 8 dereferenceable(24) %0) #6 comdat align 2 {
  %2 = alloca ptr, align 8
  store ptr %0, ptr %2, align 8, !tbaa !106
  %3 = load ptr, ptr %2, align 8
  %4 = getelementptr inbounds nuw %"struct.std::_Vector_base.6", ptr %3, i32 0, i32 0
  %5 = getelementptr inbounds nuw %"struct.std::_Vector_base<std::vector<cv::Mat>, std::allocator<std::vector<cv::Mat>>>::_Vector_impl_data", ptr %4, i32 0, i32 1
  %6 = load ptr, ptr %5, align 8, !tbaa !128
  %7 = getelementptr inbounds nuw %"struct.std::_Vector_base.6", ptr %3, i32 0, i32 0
  %8 = getelementptr inbounds nuw %"struct.std::_Vector_base<std::vector<cv::Mat>, std::allocator<std::vector<cv::Mat>>>::_Vector_impl_data", ptr %7, i32 0, i32 0
  %9 = load ptr, ptr %8, align 8, !tbaa !107
  %10 = ptrtoint ptr %6 to i64
  %11 = ptrtoint ptr %9 to i64
  %12 = sub i64 %10, %11
  %13 = sdiv exact i64 %12, 24
  ret i64 %13
}

; Function Attrs: mustprogress uwtable
define hidden void @_ZNK2cv8ximgproc16GuidedFilterImpl22ApplyTransform_ParBodyclERKNS_5RangeE(ptr noundef nonnull align 8 dereferenceable(32) %0, ptr noundef nonnull align 4 dereferenceable(8) %1) unnamed_addr #4 align 2 {
  %3 = alloca ptr, align 8
  %4 = alloca ptr, align 8
  %5 = alloca i32, align 4
  %6 = alloca i32, align 4
  %7 = alloca i32, align 4
  %8 = alloca [4 x ptr], align 16
  %9 = alloca i32, align 4
  %10 = alloca ptr, align 8
  %11 = alloca ptr, align 8
  %12 = alloca ptr, align 8
  %13 = alloca i32, align 4
  %14 = alloca i32, align 4
  store ptr %0, ptr %3, align 8, !tbaa !140
  store ptr %1, ptr %4, align 8, !tbaa !8
  %15 = load ptr, ptr %3, align 8
  call void @llvm.lifetime.start.p0(i64 4, ptr %5) #3
  %16 = getelementptr inbounds nuw %"struct.cv::ximgproc::GuidedFilterImpl::ApplyTransform_ParBody", ptr %15, i32 0, i32 2
  %17 = load ptr, ptr %16, align 8, !tbaa !142
  %18 = call noundef i64 @_ZNKSt6vectorIS_IN2cv3MatESaIS1_EESaIS3_EE4sizeEv(ptr noundef nonnull align 8 dereferenceable(24) %17) #3
  %19 = trunc i64 %18 to i32
  store i32 %19, ptr %5, align 4, !tbaa !15
  call void @llvm.lifetime.start.p0(i64 4, ptr %6) #3
  %20 = load ptr, ptr %4, align 8, !tbaa !8
  %21 = getelementptr inbounds nuw %"class.cv::Range", ptr %20, i32 0, i32 0
  %22 = load i32, ptr %21, align 4, !tbaa !17
  store i32 %22, ptr %6, align 4, !tbaa !15
  br label %23

23:                                               ; preds = %106, %2
  %24 = load i32, ptr %6, align 4, !tbaa !15
  %25 = load ptr, ptr %4, align 8, !tbaa !8
  %26 = getelementptr inbounds nuw %"class.cv::Range", ptr %25, i32 0, i32 1
  %27 = load i32, ptr %26, align 4, !tbaa !19
  %28 = icmp slt i32 %24, %27
  br i1 %28, label %30, label %29

29:                                               ; preds = %23
  store i32 2, ptr %7, align 4
  call void @llvm.lifetime.end.p0(i64 4, ptr %6) #3
  br label %109

30:                                               ; preds = %23
  call void @llvm.lifetime.start.p0(i64 32, ptr %8) #3
  call void @llvm.lifetime.start.p0(i64 4, ptr %9) #3
  store i32 0, ptr %9, align 4, !tbaa !15
  br label %31

31:                                               ; preds = %51, %30
  %32 = load i32, ptr %9, align 4, !tbaa !15
  %33 = getelementptr inbounds nuw %"struct.cv::ximgproc::GuidedFilterImpl::ApplyTransform_ParBody", ptr %15, i32 0, i32 1
  %34 = load ptr, ptr %33, align 8, !tbaa !144
  %35 = getelementptr inbounds nuw %"class.cv::ximgproc::GuidedFilterImpl", ptr %34, i32 0, i32 13
  %36 = load i32, ptr %35, align 8, !tbaa !42
  %37 = icmp slt i32 %32, %36
  br i1 %37, label %39, label %38

38:                                               ; preds = %31
  store i32 5, ptr %7, align 4
  call void @llvm.lifetime.end.p0(i64 4, ptr %9) #3
  br label %54

39:                                               ; preds = %31
  %40 = getelementptr inbounds nuw %"struct.cv::ximgproc::GuidedFilterImpl::ApplyTransform_ParBody", ptr %15, i32 0, i32 1
  %41 = load ptr, ptr %40, align 8, !tbaa !144
  %42 = getelementptr inbounds nuw %"class.cv::ximgproc::GuidedFilterImpl", ptr %41, i32 0, i32 11
  %43 = load i32, ptr %9, align 4, !tbaa !15
  %44 = sext i32 %43 to i64
  %45 = call noundef nonnull align 8 dereferenceable(96) ptr @_ZNSt6vectorIN2cv3MatESaIS1_EEixEm(ptr noundef nonnull align 8 dereferenceable(24) %42, i64 noundef %44) #3
  %46 = load i32, ptr %6, align 4, !tbaa !15
  %47 = call noundef ptr @_ZN2cv3Mat3ptrIfEEPT_i(ptr noundef nonnull align 8 dereferenceable(96) %45, i32 noundef %46)
  %48 = load i32, ptr %9, align 4, !tbaa !15
  %49 = sext i32 %48 to i64
  %50 = getelementptr inbounds [4 x ptr], ptr %8, i64 0, i64 %49
  store ptr %47, ptr %50, align 8, !tbaa !21
  br label %51

51:                                               ; preds = %39
  %52 = load i32, ptr %9, align 4, !tbaa !15
  %53 = add nsw i32 %52, 1
  store i32 %53, ptr %9, align 4, !tbaa !15
  br label %31, !llvm.loop !145

54:                                               ; preds = %38
  call void @llvm.lifetime.start.p0(i64 8, ptr %10) #3
  call void @llvm.lifetime.start.p0(i64 8, ptr %11) #3
  call void @llvm.lifetime.start.p0(i64 8, ptr %12) #3
  call void @llvm.lifetime.start.p0(i64 4, ptr %13) #3
  store i32 0, ptr %13, align 4, !tbaa !15
  br label %55

55:                                               ; preds = %102, %54
  %56 = load i32, ptr %13, align 4, !tbaa !15
  %57 = load i32, ptr %5, align 4, !tbaa !15
  %58 = icmp slt i32 %56, %57
  br i1 %58, label %60, label %59

59:                                               ; preds = %55
  store i32 8, ptr %7, align 4
  call void @llvm.lifetime.end.p0(i64 4, ptr %13) #3
  br label %105

60:                                               ; preds = %55
  %61 = getelementptr inbounds nuw %"struct.cv::ximgproc::GuidedFilterImpl::ApplyTransform_ParBody", ptr %15, i32 0, i32 3
  %62 = load ptr, ptr %61, align 8, !tbaa !146
  %63 = load i32, ptr %13, align 4, !tbaa !15
  %64 = sext i32 %63 to i64
  %65 = call noundef nonnull align 8 dereferenceable(96) ptr @_ZNSt6vectorIN2cv3MatESaIS1_EEixEm(ptr noundef nonnull align 8 dereferenceable(24) %62, i64 noundef %64) #3
  %66 = load i32, ptr %6, align 4, !tbaa !15
  %67 = call noundef ptr @_ZN2cv3Mat3ptrIfEEPT_i(ptr noundef nonnull align 8 dereferenceable(96) %65, i32 noundef %66)
  store ptr %67, ptr %10, align 8, !tbaa !21
  call void @llvm.lifetime.start.p0(i64 4, ptr %14) #3
  store i32 0, ptr %14, align 4, !tbaa !15
  br label %68

68:                                               ; preds = %98, %60
  %69 = load i32, ptr %14, align 4, !tbaa !15
  %70 = getelementptr inbounds nuw %"struct.cv::ximgproc::GuidedFilterImpl::ApplyTransform_ParBody", ptr %15, i32 0, i32 1
  %71 = load ptr, ptr %70, align 8, !tbaa !144
  %72 = getelementptr inbounds nuw %"class.cv::ximgproc::GuidedFilterImpl", ptr %71, i32 0, i32 13
  %73 = load i32, ptr %72, align 8, !tbaa !42
  %74 = icmp slt i32 %69, %73
  br i1 %74, label %76, label %75

75:                                               ; preds = %68
  store i32 11, ptr %7, align 4
  call void @llvm.lifetime.end.p0(i64 4, ptr %14) #3
  br label %101

76:                                               ; preds = %68
  %77 = getelementptr inbounds nuw %"struct.cv::ximgproc::GuidedFilterImpl::ApplyTransform_ParBody", ptr %15, i32 0, i32 2
  %78 = load ptr, ptr %77, align 8, !tbaa !142
  %79 = load i32, ptr %13, align 4, !tbaa !15
  %80 = sext i32 %79 to i64
  %81 = call noundef nonnull align 8 dereferenceable(24) ptr @_ZNSt6vectorIS_IN2cv3MatESaIS1_EESaIS3_EEixEm(ptr noundef nonnull align 8 dereferenceable(24) %78, i64 noundef %80) #3
  %82 = load i32, ptr %14, align 4, !tbaa !15
  %83 = sext i32 %82 to i64
  %84 = call noundef nonnull align 8 dereferenceable(96) ptr @_ZNSt6vectorIN2cv3MatESaIS1_EEixEm(ptr noundef nonnull align 8 dereferenceable(24) %81, i64 noundef %83) #3
  %85 = load i32, ptr %6, align 4, !tbaa !15
  %86 = call noundef ptr @_ZN2cv3Mat3ptrIfEEPT_i(ptr noundef nonnull align 8 dereferenceable(96) %84, i32 noundef %85)
  store ptr %86, ptr %12, align 8, !tbaa !21
  %87 = load i32, ptr %14, align 4, !tbaa !15
  %88 = sext i32 %87 to i64
  %89 = getelementptr inbounds [4 x ptr], ptr %8, i64 0, i64 %88
  %90 = load ptr, ptr %89, align 8, !tbaa !21
  store ptr %90, ptr %11, align 8, !tbaa !21
  %91 = load ptr, ptr %10, align 8, !tbaa !21
  %92 = load ptr, ptr %12, align 8, !tbaa !21
  %93 = load ptr, ptr %11, align 8, !tbaa !21
  %94 = getelementptr inbounds nuw %"struct.cv::ximgproc::GuidedFilterImpl::ApplyTransform_ParBody", ptr %15, i32 0, i32 1
  %95 = load ptr, ptr %94, align 8, !tbaa !144
  %96 = getelementptr inbounds nuw %"class.cv::ximgproc::GuidedFilterImpl", ptr %95, i32 0, i32 8
  %97 = load i32, ptr %96, align 4, !tbaa !147
  call void @_ZN2cv8ximgproc10intrinsics7add_mulEPfS2_S2_i(ptr noundef %91, ptr noundef %92, ptr noundef %93, i32 noundef %97)
  br label %98

98:                                               ; preds = %76
  %99 = load i32, ptr %14, align 4, !tbaa !15
  %100 = add nsw i32 %99, 1
  store i32 %100, ptr %14, align 4, !tbaa !15
  br label %68, !llvm.loop !148

101:                                              ; preds = %75
  br label %102

102:                                              ; preds = %101
  %103 = load i32, ptr %13, align 4, !tbaa !15
  %104 = add nsw i32 %103, 1
  store i32 %104, ptr %13, align 4, !tbaa !15
  br label %55, !llvm.loop !149

105:                                              ; preds = %59
  call void @llvm.lifetime.end.p0(i64 8, ptr %12) #3
  call void @llvm.lifetime.end.p0(i64 8, ptr %11) #3
  call void @llvm.lifetime.end.p0(i64 8, ptr %10) #3
  call void @llvm.lifetime.end.p0(i64 32, ptr %8) #3
  br label %106

106:                                              ; preds = %105
  %107 = load i32, ptr %6, align 4, !tbaa !15
  %108 = add nsw i32 %107, 1
  store i32 %108, ptr %6, align 4, !tbaa !15
  br label %23, !llvm.loop !150

109:                                              ; preds = %29
  call void @llvm.lifetime.end.p0(i64 4, ptr %5) #3
  ret void
}