; Function Attrs: mustprogress uwtable
define hidden void @_ZNK2cv8ximgproc16GuidedFilterImpl22ApplyTransform_ParBodyclERKNS_5RangeE(ptr noundef nonnull readonly align 8 captures(none) dereferenceable(32) %0, ptr noundef nonnull readonly align 4 captures(none) dereferenceable(8) %1) unnamed_addr #3 align 2 {
  %3 = alloca [4 x ptr], align 16
  %4 = getelementptr inbounds nuw i8, ptr %0, i64 16
  %5 = load ptr, ptr %4, align 8, !tbaa !113
  %6 = getelementptr inbounds nuw i8, ptr %5, i64 8
  %7 = load ptr, ptr %6, align 8, !tbaa !94
  %8 = load ptr, ptr %5, align 8, !tbaa !80
  %9 = ptrtoint ptr %7 to i64
  %10 = ptrtoint ptr %8 to i64
  %11 = sub i64 %9, %10
  %12 = sdiv exact i64 %11, 24
  %13 = load i32, ptr %1, align 4, !tbaa !19
  %14 = getelementptr inbounds nuw i8, ptr %1, i64 4
  %15 = load i32, ptr %14, align 4, !tbaa !21
  %16 = icmp slt i32 %13, %15
  br i1 %16, label %.lr.ph34, label %._crit_edge35

.lr.ph34:                                         ; preds = %2
  %17 = trunc i64 %12 to i32
  %18 = getelementptr inbounds nuw i8, ptr %0, i64 8
  %19 = icmp sgt i32 %17, 0
  %20 = getelementptr inbounds nuw i8, ptr %0, i64 24
  br i1 %19, label %.lr.ph34.split.us.preheader, label %.lr.ph34.split

.lr.ph34.split.us.preheader:                      ; preds = %.lr.ph34
  %21 = sext i32 %13 to i64
  %.pre = load ptr, ptr %18, align 8, !tbaa !115
  %wide.trip.count70 = and i64 %12, 2147483647
  br label %.lr.ph34.split.us

.lr.ph34.split.us:                                ; preds = %.lr.ph34.split.us.preheader, %._crit_edge31.us
  %22 = phi i32 [ %15, %.lr.ph34.split.us.preheader ], [ %77, %._crit_edge31.us ]
  %23 = phi ptr [ %.pre, %.lr.ph34.split.us.preheader ], [ %78, %._crit_edge31.us ]
  %24 = phi ptr [ %.pre, %.lr.ph34.split.us.preheader ], [ %79, %._crit_edge31.us ]
  %indvars.iv72 = phi i64 [ %21, %.lr.ph34.split.us.preheader ], [ %indvars.iv.next73, %._crit_edge31.us ]
  call void @llvm.lifetime.start.p0(i64 32, ptr nonnull %3) #22
  %25 = getelementptr inbounds nuw i8, ptr %24, i64 152
  %26 = load i32, ptr %25, align 8, !tbaa !23
  %27 = icmp sgt i32 %26, 0
  br i1 %27, label %.lr.ph.us, label %._crit_edge31.us

.lr.ph30.split.us38:                              ; preds = %65, %._crit_edge.us
  %28 = phi ptr [ %42, %._crit_edge.us ], [ %23, %65 ]
  %indvars.iv67 = phi i64 [ %indvars.iv.next68, %._crit_edge.us ], [ 0, %65 ]
  %29 = load ptr, ptr %20, align 8, !tbaa !116
  %30 = load ptr, ptr %29, align 8, !tbaa !29
  %31 = getelementptr inbounds nuw %"class.cv::Mat", ptr %30, i64 %indvars.iv67
  %32 = getelementptr inbounds nuw i8, ptr %31, i64 16
  %33 = load ptr, ptr %32, align 8, !tbaa !30
  %34 = getelementptr inbounds nuw i8, ptr %31, i64 72
  %35 = load ptr, ptr %34, align 8, !tbaa !39
  %36 = load i64, ptr %35, align 8, !tbaa !40
  %37 = mul i64 %36, %indvars.iv72
  %38 = getelementptr inbounds nuw i8, ptr %33, i64 %37
  %39 = getelementptr inbounds nuw i8, ptr %28, i64 152
  %40 = load i32, ptr %39, align 8, !tbaa !23
  %41 = icmp sgt i32 %40, 0
  br i1 %41, label %.lr.ph28.us, label %._crit_edge.us

._crit_edge.us:                                   ; preds = %.lr.ph28.us, %.lr.ph30.split.us38
  %42 = phi ptr [ %28, %.lr.ph30.split.us38 ], [ %60, %.lr.ph28.us ]
  %indvars.iv.next68 = add nuw nsw i64 %indvars.iv67, 1
  %exitcond71.not = icmp eq i64 %indvars.iv.next68, %wide.trip.count70
  br i1 %exitcond71.not, label %._crit_edge31.us.loopexit, label %.lr.ph30.split.us38, !llvm.loop !117

.lr.ph28.us:                                      ; preds = %.lr.ph30.split.us38, %.lr.ph28.us
  %indvars.iv64 = phi i64 [ %indvars.iv.next65, %.lr.ph28.us ], [ 0, %.lr.ph30.split.us38 ]
  %43 = phi ptr [ %60, %.lr.ph28.us ], [ %28, %.lr.ph30.split.us38 ]
  %44 = load ptr, ptr %4, align 8, !tbaa !113
  %45 = load ptr, ptr %44, align 8, !tbaa !80
  %46 = getelementptr inbounds nuw %"class.std::vector", ptr %45, i64 %indvars.iv67
  %47 = load ptr, ptr %46, align 8, !tbaa !29
  %48 = getelementptr inbounds nuw %"class.cv::Mat", ptr %47, i64 %indvars.iv64
  %49 = getelementptr inbounds nuw i8, ptr %48, i64 16
  %50 = load ptr, ptr %49, align 8, !tbaa !30
  %51 = getelementptr inbounds nuw i8, ptr %48, i64 72
  %52 = load ptr, ptr %51, align 8, !tbaa !39
  %53 = load i64, ptr %52, align 8, !tbaa !40
  %54 = mul i64 %53, %indvars.iv72
  %55 = getelementptr inbounds nuw i8, ptr %50, i64 %54
  %56 = getelementptr inbounds nuw [4 x ptr], ptr %3, i64 0, i64 %indvars.iv64
  %57 = load ptr, ptr %56, align 8, !tbaa !108
  %58 = getelementptr inbounds nuw i8, ptr %43, i64 44
  %59 = load i32, ptr %58, align 4, !tbaa !118
  tail call void @_ZN2cv8ximgproc10intrinsics7add_mulEPfS2_S2_i(ptr noundef %38, ptr noundef %55, ptr noundef %57, i32 noundef %59)
  %indvars.iv.next65 = add nuw nsw i64 %indvars.iv64, 1
  %60 = load ptr, ptr %18, align 8, !tbaa !115
  %61 = getelementptr inbounds nuw i8, ptr %60, i64 152
  %62 = load i32, ptr %61, align 8, !tbaa !23
  %63 = sext i32 %62 to i64
  %64 = icmp slt i64 %indvars.iv.next65, %63
  br i1 %64, label %.lr.ph28.us, label %._crit_edge.us, !llvm.loop !119

65:                                               ; preds = %.lr.ph.us, %65
  %indvars.iv59 = phi i64 [ 0, %.lr.ph.us ], [ %indvars.iv.next60, %65 ]
  %66 = getelementptr inbounds nuw %"class.cv::Mat", ptr %76, i64 %indvars.iv59
  %67 = getelementptr inbounds nuw i8, ptr %66, i64 16
  %68 = load ptr, ptr %67, align 8, !tbaa !30
  %69 = getelementptr inbounds nuw i8, ptr %66, i64 72
  %70 = load ptr, ptr %69, align 8, !tbaa !39
  %71 = load i64, ptr %70, align 8, !tbaa !40
  %72 = mul i64 %71, %indvars.iv72
  %73 = getelementptr inbounds nuw i8, ptr %68, i64 %72
  %74 = getelementptr inbounds nuw [4 x ptr], ptr %3, i64 0, i64 %indvars.iv59
  store ptr %73, ptr %74, align 8, !tbaa !108
  %indvars.iv.next60 = add nuw nsw i64 %indvars.iv59, 1
  %exitcond63.not = icmp eq i64 %indvars.iv.next60, %wide.trip.count62
  br i1 %exitcond63.not, label %.lr.ph30.split.us38, label %65, !llvm.loop !120

.lr.ph.us:                                        ; preds = %.lr.ph34.split.us
  %75 = getelementptr inbounds nuw i8, ptr %24, i64 96
  %76 = load ptr, ptr %75, align 8, !tbaa !29
  %wide.trip.count62 = zext nneg i32 %26 to i64
  br label %65

._crit_edge31.us.loopexit:                        ; preds = %._crit_edge.us
  %.pre75 = load i32, ptr %14, align 4, !tbaa !21
  br label %._crit_edge31.us

._crit_edge31.us:                                 ; preds = %.lr.ph34.split.us, %._crit_edge31.us.loopexit
  %77 = phi i32 [ %.pre75, %._crit_edge31.us.loopexit ], [ %22, %.lr.ph34.split.us ]
  %78 = phi ptr [ %42, %._crit_edge31.us.loopexit ], [ %23, %.lr.ph34.split.us ]
  %79 = phi ptr [ %42, %._crit_edge31.us.loopexit ], [ %24, %.lr.ph34.split.us ]
  call void @llvm.lifetime.end.p0(i64 32, ptr nonnull %3) #22
  %indvars.iv.next73 = add nsw i64 %indvars.iv72, 1
  %80 = sext i32 %77 to i64
  %81 = icmp slt i64 %indvars.iv.next73, %80
  br i1 %81, label %.lr.ph34.split.us, label %._crit_edge35, !llvm.loop !121

.lr.ph34.split:                                   ; preds = %.lr.ph34
  %82 = load ptr, ptr %18, align 8, !tbaa !115
  %83 = getelementptr inbounds nuw i8, ptr %82, i64 152
  %84 = load i32, ptr %83, align 8, !tbaa !23
  %85 = icmp sgt i32 %84, 0
  br i1 %85, label %.lr.ph34.split.split.us, label %._crit_edge35

.lr.ph34.split.split.us:                          ; preds = %.lr.ph34.split
  %86 = getelementptr inbounds nuw i8, ptr %82, i64 96
  %87 = load ptr, ptr %86, align 8, !tbaa !29
  %88 = sext i32 %13 to i64
  %89 = sext i32 %15 to i64
  %wide.trip.count54 = zext nneg i32 %84 to i64
  br label %.lr.ph.us42

.lr.ph.us42:                                      ; preds = %..preheader_crit_edge.us43, %.lr.ph34.split.split.us
  %indvars.iv56 = phi i64 [ %indvars.iv.next57, %..preheader_crit_edge.us43 ], [ %88, %.lr.ph34.split.split.us ]
  call void @llvm.lifetime.start.p0(i64 32, ptr nonnull %3) #22
  br label %90

90:                                               ; preds = %.lr.ph.us42, %90
  %indvars.iv51 = phi i64 [ 0, %.lr.ph.us42 ], [ %indvars.iv.next52, %90 ]
  %91 = getelementptr inbounds nuw %"class.cv::Mat", ptr %87, i64 %indvars.iv51
  %92 = getelementptr inbounds nuw i8, ptr %91, i64 16
  %93 = load ptr, ptr %92, align 8, !tbaa !30
  %94 = getelementptr inbounds nuw i8, ptr %91, i64 72
  %95 = load ptr, ptr %94, align 8, !tbaa !39
  %96 = load i64, ptr %95, align 8, !tbaa !40
  %97 = mul i64 %96, %indvars.iv56
  %98 = getelementptr inbounds nuw i8, ptr %93, i64 %97
  %99 = getelementptr inbounds nuw [4 x ptr], ptr %3, i64 0, i64 %indvars.iv51
  store ptr %98, ptr %99, align 8, !tbaa !108
  %indvars.iv.next52 = add nuw nsw i64 %indvars.iv51, 1
  %exitcond55.not = icmp eq i64 %indvars.iv.next52, %wide.trip.count54
  br i1 %exitcond55.not, label %..preheader_crit_edge.us43, label %90, !llvm.loop !120

..preheader_crit_edge.us43:                       ; preds = %90
  call void @llvm.lifetime.end.p0(i64 32, ptr nonnull %3) #22
  %indvars.iv.next57 = add nsw i64 %indvars.iv56, 1
  %100 = icmp slt i64 %indvars.iv.next57, %89
  br i1 %100, label %.lr.ph.us42, label %._crit_edge35, !llvm.loop !121

._crit_edge35:                                    ; preds = %..preheader_crit_edge.us43, %._crit_edge31.us, %.lr.ph34.split, %2
  ret void
}